Certificate:
    Data:
        Version: 3 (0x2)
        Serial Number: 1 (0x1)
        Signature Algorithm: sha1WithRSAEncryption
        Issuer: C=IT, ST=Italy, L=Rome, O=Metallica srl, CN=Master-of-puppCerts/emailAddress=charlesleclerc@sauber.it
        Validity
            Not Before: Jul 30 09:30:04 2018 GMT
            Not After : Jul 27 09:30:04 2028 GMT
        Subject: C=IT, ST=Italy, L=Rome, O=Metallica srl, CN=the-unforgiVPN/emailAddress=charlesleclerc@sauber.it
        Subject Public Key Info:
            Public Key Algorithm: rsaEncryption
            RSA Public Key: (1024 bit)
                Modulus (1024 bit):
                    00:b0:12:d3:bc:03:a7:c7:28:92:a6:ec:13:42:1d:
                    93:5b:81:53:2e:78:b8:16:c3:8a:7f:e6:64:ed:97:
                    31:92:af:7e:c5:29:8e:a9:14:c1:a9:da:d4:7e:b1:
                    3d:29:98:80:fc:7c:5e:5b:9d:df:5a:81:db:a4:74:
                    a7:5b:52:5a:94:78:00:05:93:29:22:72:20:cb:51:
                    37:7c:1b:77:f3:3e:88:d0:1d:b2:18:79:a4:2c:76:
                    d0:df:83:b1:4f:af:26:10:e4:c3:e7:f9:22:3e:75:
                    76:2a:a9:91:dd:62:e6:e9:a9:cc:f2:54:47:06:a1:
                    60:0d:13:fe:0a:fc:83:2a:f3
                Exponent: 65537 (0x10001)
        X509v3 extensions:
            X509v3 Basic Constraints: 
                CA:FALSE
            Netscape Cert Type: 
                SSL Server
            Netscape Comment: 
                Easy-RSA Generated Server Certificate
            X509v3 Subject Key Identifier: 
                7C:7D:FE:94:B1:B5:FF:A8:1C:2B:7E:EA:9C:D2:B5:01:62:52:17:29
            X509v3 Authority Key Identifier: 
                keyid:DE:B3:4B:C7:B8:F4:76:96:3B:07:F1:01:D8:F1:DB:16:E2:9C:27:C1
                DirName:/C=IT/ST=Italy/L=Rome/O=Metallica srl/CN=Master-of-puppCerts/emailAddress=charlesleclerc@sauber.it
                serial:90:BB:74:A5:88:2D:96:F7

            X509v3 Extended Key Usage: 
                TLS Web Server Authentication
            X509v3 Key Usage: 
                Digital Signature, Key Encipherment
    Signature Algorithm: sha1WithRSAEncryption
        27:82:88:d4:7e:f4:78:69:af:fd:89:4d:dd:aa:49:7a:bb:7f:
        ac:16:c8:eb:70:72:a3:ee:a5:07:5d:bb:35:be:bd:db:4f:1c:
        bb:b1:8c:ab:4b:33:3e:d6:4b:fd:51:c4:af:b8:ef:d8:23:d1:
        4c:cf:1c:72:57:ce:25:e1:2e:0a:cb:db:7b:6c:e1:8a:ad:b2:
        61:c6:4e:b2:40:93:7e:7f:fa:28:23:18:2c:4c:ad:f7:88:e9:
        2f:f1:bd:1f:7a:5b:c3:bc:a5:1f:bc:b4:6f:91:20:2b:01:97:
        0b:c4:d8:46:c5:5b:31:36:bb:4e:62:3d:17:92:0f:78:dd:7b:
        6e:24:c2:d1:1e:88:2c:62:8b:33:74:31:e7:e4:33:a9:de:d5:
        cc:94:98:19:1d:c7:87:5f:82:10:89:41:c5:14:8a:bb:b7:62:
        33:49:db:13:68:fb:10:8d:79:e0:94:78:1c:69:e7:2e:0b:2e:
        44:e8:a2:e2:4d:3a:33:d0:b3:f6:ce:85:da:cf:ef:26:da:ea:
        8a:c6:ad:dd:06:ee:f0:3f:43:c6:78:32:84:d6:92:a2:a1:9b:
        87:93:cb:04:24:77:b7:02:15:d8:0c:80:fc:cf:d4:ce:a2:15:
        e8:95:28:e5:8e:e6:e0:08:17:e5:b3:e8:6b:b5:fa:1c:1c:44:
        99:54:a9:07
-----BEGIN CERTIFICATE-----
MIIEaDCCA1CgAwIBAgIBATANBgkqhkiG9w0BAQUFADCBizELMAkGA1UEBhMCSVQx
DjAMBgNVBAgMBUl0YWx5MQ0wCwYDVQQHDARSb21lMRYwFAYDVQQKDA1NZXRhbGxp
Y2Egc3JsMRwwGgYDVQQDDBNNYXN0ZXItb2YtcHVwcENlcnRzMScwJQYJKoZIhvcN
AQkBFhhjaGFybGVzbGVjbGVyY0BzYXViZXIuaXQwHhcNMTgwNzMwMDkzMDA0WhcN
MjgwNzI3MDkzMDA0WjCBhjELMAkGA1UEBhMCSVQxDjAMBgNVBAgTBUl0YWx5MQ0w
CwYDVQQHEwRSb21lMRYwFAYDVQQKEw1NZXRhbGxpY2Egc3JsMRcwFQYDVQQDEw50
aGUtdW5mb3JnaVZQTjEnMCUGCSqGSIb3DQEJARYYY2hhcmxlc2xlY2xlcmNAc2F1
YmVyLml0MIGfMA0GCSqGSIb3DQEBAQUAA4GNADCBiQKBgQCwEtO8A6fHKJKm7BNC
HZNbgVMueLgWw4p/5mTtlzGSr37FKY6pFMGp2tR+sT0pmID8fF5bnd9agdukdKdb
UlqUeAAFkykiciDLUTd8G3fzPojQHbIYeaQsdtDfg7FPryYQ5MPn+SI+dXYqqZHd
YubpqczyVEcGoWANE/4K/IMq8wIDAQABo4IBXDCCAVgwCQYDVR0TBAIwADARBglg
hkgBhvhCAQEEBAMCBkAwNAYJYIZIAYb4QgENBCcWJUVhc3ktUlNBIEdlbmVyYXRl
ZCBTZXJ2ZXIgQ2VydGlmaWNhdGUwHQYDVR0OBBYEFHx9/pSxtf+oHCt+6pzStQFi
UhcpMIHABgNVHSMEgbgwgbWAFN6zS8e49HaWOwfxAdjx2xbinCfBoYGRpIGOMIGL
MQswCQYDVQQGEwJJVDEOMAwGA1UECAwFSXRhbHkxDTALBgNVBAcMBFJvbWUxFjAU
BgNVBAoMDU1ldGFsbGljYSBzcmwxHDAaBgNVBAMME01hc3Rlci1vZi1wdXBwQ2Vy
dHMxJzAlBgkqhkiG9w0BCQEWGGNoYXJsZXNsZWNsZXJjQHNhdWJlci5pdIIJAJC7
dKWILZb3MBMGA1UdJQQMMAoGCCsGAQUFBwMBMAsGA1UdDwQEAwIFoDANBgkqhkiG
9w0BAQUFAAOCAQEAJ4KI1H70eGmv/YlN3apJert/rBbI63Byo+6lB127Nb69208c
u7GMq0szPtZL/VHEr7jv2CPRTM8cclfOJeEuCsvbe2zhiq2yYcZOskCTfn/6KCMY
LEyt94jpL/G9H3pbw7ylH7y0b5EgKwGXC8TYRsVbMTa7TmI9F5IPeN17biTC0R6I
LGKLM3Qx5+Qzqd7VzJSYGR3Hh1+CEIlBxRSKu7diM0nbE2j7EI154JR4HGnnLgsu
ROii4k06M9Cz9s6F2s/vJtrqisat3Qbu8D9DxngyhNaSoqGbh5PLBCR3twIV2AyA
/M/UzqIV6JUo5Y7m4AgX5bPoa7X6HBxEmVSpBw==
-----END CERTIFICATE-----
